; ModuleID = '6/1643.c'
source_filename = "6/1643.c"
target datalayout = "e-m:e-p270:32:32-p271:32:32-p272:64:64-i64:64-f80:128-n8:16:32:64-S128"
target triple = "x86_64-pc-linux-gnu"

@.str = private unnamed_addr constant [3 x i8] c"%d\00", align 1
@.str.1 = private unnamed_addr constant [5 x i8] c"%d%d\00", align 1
@.str.2 = private unnamed_addr constant [4 x i8] c"%d\0A\00", align 1

; Function Attrs: noinline nounwind uwtable
define dso_local i32 @main() #0 {
  %1 = alloca i32, align 4
  %2 = alloca i32, align 4
  %3 = alloca i32, align 4
  %4 = alloca i32, align 4
  %5 = alloca i32, align 4
  %6 = alloca [100 x [3 x i32]], align 16
  %7 = alloca i32, align 4
  %8 = alloca i32, align 4
  %9 = alloca [100 x [100 x i32]], align 16
  store i32 0, i32* %1, align 4
  %10 = call i32 (i8*, ...) @__isoc99_scanf(i8* getelementptr inbounds ([3 x i8], [3 x i8]* @.str, i64 0, i64 0), i32* %2)
  store i32 1, i32* %3, align 4
  br label %11

11:                                               ; preds = %124, %0
  %12 = load i32, i32* %3, align 4
  %13 = load i32, i32* %2, align 4
  %14 = icmp sle i32 %12, %13
  br i1 %14, label %15, label %127

15:                                               ; preds = %11
  %16 = call i32 (i8*, ...) @__isoc99_scanf(i8* getelementptr inbounds ([5 x i8], [5 x i8]* @.str.1, i64 0, i64 0), i32* %7, i32* %8)
  %17 = load i32, i32* %3, align 4
  %18 = sext i32 %17 to i64
  %19 = getelementptr inbounds [100 x [3 x i32]], [100 x [3 x i32]]* %6, i64 0, i64 %18
  %20 = getelementptr inbounds [3 x i32], [3 x i32]* %19, i64 0, i64 1
  store i32 0, i32* %20, align 4
  %21 = load i32, i32* %3, align 4
  %22 = sext i32 %21 to i64
  %23 = getelementptr inbounds [100 x [3 x i32]], [100 x [3 x i32]]* %6, i64 0, i64 %22
  %24 = getelementptr inbounds [3 x i32], [3 x i32]* %23, i64 0, i64 2
  store i32 0, i32* %24, align 4
  store i32 1, i32* %4, align 4
  br label %25

25:                                               ; preds = %63, %15
  %26 = load i32, i32* %4, align 4
  %27 = load i32, i32* %7, align 4
  %28 = icmp sle i32 %26, %27
  br i1 %28, label %29, label %66

29:                                               ; preds = %25
  store i32 1, i32* %5, align 4
  br label %30

30:                                               ; preds = %59, %29
  %31 = load i32, i32* %5, align 4
  %32 = load i32, i32* %8, align 4
  %33 = icmp sle i32 %31, %32
  br i1 %33, label %34, label %62

34:                                               ; preds = %30
  %35 = load i32, i32* %4, align 4
  %36 = sext i32 %35 to i64
  %37 = getelementptr inbounds [100 x [100 x i32]], [100 x [100 x i32]]* %9, i64 0, i64 %36
  %38 = load i32, i32* %5, align 4
  %39 = sext i32 %38 to i64
  %40 = getelementptr inbounds [100 x i32], [100 x i32]* %37, i64 0, i64 %39
  %41 = call i32 (i8*, ...) @__isoc99_scanf(i8* getelementptr inbounds ([3 x i8], [3 x i8]* @.str, i64 0, i64 0), i32* %40)
  %42 = load i32, i32* %3, align 4
  %43 = sext i32 %42 to i64
  %44 = getelementptr inbounds [100 x [3 x i32]], [100 x [3 x i32]]* %6, i64 0, i64 %43
  %45 = getelementptr inbounds [3 x i32], [3 x i32]* %44, i64 0, i64 1
  %46 = load i32, i32* %45, align 4
  %47 = load i32, i32* %4, align 4
  %48 = sext i32 %47 to i64
  %49 = getelementptr inbounds [100 x [100 x i32]], [100 x [100 x i32]]* %9, i64 0, i64 %48
  %50 = load i32, i32* %5, align 4
  %51 = sext i32 %50 to i64
  %52 = getelementptr inbounds [100 x i32], [100 x i32]* %49, i64 0, i64 %51
  %53 = load i32, i32* %52, align 4
  %54 = add nsw i32 %46, %53
  %55 = load i32, i32* %3, align 4
  %56 = sext i32 %55 to i64
  %57 = getelementptr inbounds [100 x [3 x i32]], [100 x [3 x i32]]* %6, i64 0, i64 %56
  %58 = getelementptr inbounds [3 x i32], [3 x i32]* %57, i64 0, i64 1
  store i32 %54, i32* %58, align 4
  br label %59

59:                                               ; preds = %34
  %60 = load i32, i32* %5, align 4
  %61 = add nsw i32 %60, 1
  store i32 %61, i32* %5, align 4
  br label %30

62:                                               ; preds = %30
  br label %63

63:                                               ; preds = %62
  %64 = load i32, i32* %4, align 4
  %65 = add nsw i32 %64, 1
  store i32 %65, i32* %4, align 4
  br label %25

66:                                               ; preds = %25
  %67 = load i32, i32* %7, align 4
  %68 = icmp sgt i32 %67, 1
  br i1 %68, label %69, label %108

69:                                               ; preds = %66
  %70 = load i32, i32* %8, align 4
  %71 = icmp sgt i32 %70, 1
  br i1 %71, label %72, label %108

72:                                               ; preds = %69
  store i32 2, i32* %4, align 4
  br label %73

73:                                               ; preds = %104, %72
  %74 = load i32, i32* %4, align 4
  %75 = load i32, i32* %7, align 4
  %76 = icmp slt i32 %74, %75
  br i1 %76, label %77, label %107

77:                                               ; preds = %73
  store i32 2, i32* %5, align 4
  br label %78

78:                                               ; preds = %100, %77
  %79 = load i32, i32* %5, align 4
  %80 = load i32, i32* %8, align 4
  %81 = icmp slt i32 %79, %80
  br i1 %81, label %82, label %103

82:                                               ; preds = %78
  %83 = load i32, i32* %3, align 4
  %84 = sext i32 %83 to i64
  %85 = getelementptr inbounds [100 x [3 x i32]], [100 x [3 x i32]]* %6, i64 0, i64 %84
  %86 = getelementptr inbounds [3 x i32], [3 x i32]* %85, i64 0, i64 2
  %87 = load i32, i32* %86, align 4
  %88 = load i32, i32* %4, align 4
  %89 = sext i32 %88 to i64
  %90 = getelementptr inbounds [100 x [100 x i32]], [100 x [100 x i32]]* %9, i64 0, i64 %89
  %91 = load i32, i32* %5, align 4
  %92 = sext i32 %91 to i64
  %93 = getelementptr inbounds [100 x i32], [100 x i32]* %90, i64 0, i64 %92
  %94 = load i32, i32* %93, align 4
  %95 = add nsw i32 %87, %94
  %96 = load i32, i32* %3, align 4
  %97 = sext i32 %96 to i64
  %98 = getelementptr inbounds [100 x [3 x i32]], [100 x [3 x i32]]* %6, i64 0, i64 %97
  %99 = getelementptr inbounds [3 x i32], [3 x i32]* %98, i64 0, i64 2
  store i32 %95, i32* %99, align 4
  br label %100

100:                                              ; preds = %82
  %101 = load i32, i32* %5, align 4
  %102 = add nsw i32 %101, 1
  store i32 %102, i32* %5, align 4
  br label %78

103:                                              ; preds = %78
  br label %104

104:                                              ; preds = %103
  %105 = load i32, i32* %4, align 4
  %106 = add nsw i32 %105, 1
  store i32 %106, i32* %4, align 4
  br label %73

107:                                              ; preds = %73
  br label %108

108:                                              ; preds = %107, %69, %66
  %109 = load i32, i32* %3, align 4
  %110 = sext i32 %109 to i64
  %111 = getelementptr inbounds [100 x [3 x i32]], [100 x [3 x i32]]* %6, i64 0, i64 %110
  %112 = getelementptr inbounds [3 x i32], [3 x i32]* %111, i64 0, i64 1
  %113 = load i32, i32* %112, align 4
  %114 = load i32, i32* %3, align 4
  %115 = sext i32 %114 to i64
  %116 = getelementptr inbounds [100 x [3 x i32]], [100 x [3 x i32]]* %6, i64 0, i64 %115
  %117 = getelementptr inbounds [3 x i32], [3 x i32]* %116, i64 0, i64 2
  %118 = load i32, i32* %117, align 4
  %119 = sub nsw i32 %113, %118
  %120 = load i32, i32* %3, align 4
  %121 = sext i32 %120 to i64
  %122 = getelementptr inbounds [100 x [3 x i32]], [100 x [3 x i32]]* %6, i64 0, i64 %121
  %123 = getelementptr inbounds [3 x i32], [3 x i32]* %122, i64 0, i64 3
  store i32 %119, i32* %123, align 4
  br label %124

124:                                              ; preds = %108
  %125 = load i32, i32* %3, align 4
  %126 = add nsw i32 %125, 1
  store i32 %126, i32* %3, align 4
  br label %11

127:                                              ; preds = %11
  store i32 1, i32* %4, align 4
  br label %128

128:                                              ; preds = %139, %127
  %129 = load i32, i32* %4, align 4
  %130 = load i32, i32* %2, align 4
  %131 = icmp sle i32 %129, %130
  br i1 %131, label %132, label %142

132:                                              ; preds = %128
  %133 = load i32, i32* %4, align 4
  %134 = sext i32 %133 to i64
  %135 = getelementptr inbounds [100 x [3 x i32]], [100 x [3 x i32]]* %6, i64 0, i64 %134
  %136 = getelementptr inbounds [3 x i32], [3 x i32]* %135, i64 0, i64 3
  %137 = load i32, i32* %136, align 4
  %138 = call i32 (i8*, ...) @printf(i8* getelementptr inbounds ([4 x i8], [4 x i8]* @.str.2, i64 0, i64 0), i32 %137)
  br label %139

139:                                              ; preds = %132
  %140 = load i32, i32* %4, align 4
  %141 = add nsw i32 %140, 1
  store i32 %141, i32* %4, align 4
  br label %128

142:                                              ; preds = %128
  ret i32 0
}

declare dso_local i32 @__isoc99_scanf(i8*, ...) #1

declare dso_local i32 @printf(i8*, ...) #1


!llvm.module.flags = !{!0}
!llvm.ident = !{!1}

!0 = !{i32 1, !"wchar_size", i32 4}
!1 = !{!"clang version 10.0.0-4ubuntu1 "}
